target datalayout = "e-m:e-p270:32:32-p271:32:32-p272:64:64-i64:64-i128:128-f80:128-n8:16:32:64-S128"
target triple = "x86_64-pc-linux-gnu"

%struct._zend_executor_globals = type { %struct._zval_struct, %struct._zval_struct, [32 x ptr], ptr, ptr, %struct._zend_array, %struct._zend_array, ptr, i32, i32, ptr, ptr, ptr, ptr, ptr, ptr, i64, ptr, ptr, i32, i32, i64, i32, i32, i32, i8, i8, %struct.zend_atomic_bool_s, %struct.zend_atomic_bool_s, ptr, i64, ptr, ptr, %struct._zend_array, %struct._zend_array, i32, i8, %struct._zval_struct, %struct._zval_struct, %struct._zend_stack, %struct._zend_stack, %struct._zend_stack, ptr, i32, i32, i64, ptr, ptr, ptr, %struct._zend_objects_store, ptr, ptr, ptr, [3 x %struct._zend_op], ptr, i8, i8, i64, i32, i32, ptr, [16 x %struct._HashTableIterator], ptr, %union._zend_function, %struct._zend_op, %struct._zend_array, i64, %struct.zend_get_gc_buffer, ptr, ptr, ptr, i64, i8, i32, ptr, ptr, i64, %struct._zend_call_stack, i64, i64, [6 x ptr] }
%struct.zend_atomic_bool_s = type { i8 }
%struct._zval_struct = type { %union._zend_value, %union.anon, %union.anon.2 }
%union._zend_value = type { i64 }
%union.anon = type { i32 }
%union.anon.2 = type { i32 }
%struct._zend_stack = type { i32, i32, i32, ptr }
%struct._zend_objects_store = type { ptr, i32, i32, i32 }
%struct._HashTableIterator = type { ptr, i32, i32 }
%union._zend_function = type { %struct._zend_op_array }
%struct._zend_op_array = type { i8, [3 x i8], i32, ptr, ptr, ptr, i32, i32, ptr, ptr, ptr, ptr, i32, i32, i32, i32, ptr, ptr, ptr, ptr, ptr, i32, i32, ptr, ptr, ptr, i32, i32, i32, i32, ptr, ptr, [6 x ptr] }
%struct._zend_op = type { ptr, %union._znode_op, %union._znode_op, %union._znode_op, i32, i32, i8, i8, i8, i8 }
%union._znode_op = type { i32 }
%struct._zend_array = type { %struct._zend_refcounted_h, %union.anon.4, i32, %union.anon.6, i32, i32, i32, i32, i64, ptr }
%struct._zend_refcounted_h = type { i32, %union.anon.3 }
%union.anon.3 = type { i32 }
%union.anon.4 = type { i32 }
%union.anon.6 = type { ptr }
%struct.zend_get_gc_buffer = type { ptr, ptr, ptr }
%struct._zend_call_stack = type { ptr, i64 }
%struct._zend_execute_data = type { ptr, ptr, ptr, ptr, %struct._zval_struct, ptr, ptr, ptr, ptr }
%struct._ze_xmlwriter_object = type { ptr, ptr, %struct._zend_object }
%struct._zend_object = type { %struct._zend_refcounted_h, i32, ptr, ptr, ptr, [1 x %struct._zval_struct] }

@xmlwriter_class_entry_ce = internal global ptr null, align 8
@executor_globals = external global %struct._zend_executor_globals, align 8
@.str.4 = private unnamed_addr constant [42 x i8] c"Invalid or uninitialized XMLWriter object\00", align 1
@.str.7 = private unnamed_addr constant [31 x i8] c"must be a valid %s, \22%s\22 given\00", align 1
@.str.10 = private unnamed_addr constant [13 x i8] c"element name\00", align 1
@.str.19 = private unnamed_addr constant [12 x i8] c"Oss|bs!s!s!\00", align 1

; Function Attrs: nounwind uwtable
define internal ptr @php_xmlwriter_fetch_object(ptr noundef %0) #0 {
  %2 = alloca ptr, align 8
  store ptr %0, ptr %2, align 8
  %3 = load ptr, ptr %2, align 8
  %4 = getelementptr inbounds i8, ptr %3, i64 -16
  ret ptr %4
}

; Function Attrs: nounwind uwtable
define hidden void @zif_xmlwriter_write_dtd_entity(ptr noundef %0, ptr noundef %1) #0 {
  %3 = alloca ptr, align 8
  %4 = alloca ptr, align 8
  %5 = alloca ptr, align 8
  %6 = alloca ptr, align 8
  %7 = alloca ptr, align 8
  %8 = alloca ptr, align 8
  %9 = alloca i64, align 8
  %10 = alloca i64, align 8
  %11 = alloca i32, align 4
  %12 = alloca ptr, align 8
  %13 = alloca ptr, align 8
  %14 = alloca ptr, align 8
  %15 = alloca i8, align 1
  %16 = alloca i64, align 8
  %17 = alloca i64, align 8
  %18 = alloca i64, align 8
  %19 = alloca ptr, align 8
  %20 = alloca ptr, align 8
  store ptr %0, ptr %4, align 8
  store ptr %1, ptr %5, align 8
  store ptr null, ptr %12, align 8
  store ptr null, ptr %13, align 8
  store ptr null, ptr %14, align 8
  store i8 0, ptr %15, align 1
  %21 = load ptr, ptr %4, align 8
  %22 = getelementptr inbounds %struct._zend_execute_data, ptr %21, i32 0, i32 4
  %23 = getelementptr inbounds %struct._zval_struct, ptr %22, i32 0, i32 2
  %24 = load i32, ptr %23, align 4
  %25 = load ptr, ptr %4, align 8
  %26 = getelementptr inbounds %struct._zend_execute_data, ptr %25, i32 0, i32 4
  store ptr %26, ptr %3, align 8
  %27 = load ptr, ptr %3, align 8
  %28 = getelementptr inbounds %struct._zval_struct, ptr %27, i32 0, i32 1
  %29 = load i8, ptr %28, align 8
  %30 = zext i8 %29 to i32
  %31 = icmp eq i32 %30, 8
  br i1 %31, label %32, label %35

32:                                               ; preds = %2
  %33 = load ptr, ptr %4, align 8
  %34 = getelementptr inbounds %struct._zend_execute_data, ptr %33, i32 0, i32 4
  br label %36

35:                                               ; preds = %2
  br label %36

36:                                               ; preds = %35, %32
  %37 = phi ptr [ %34, %32 ], [ null, %35 ]
  %38 = load ptr, ptr @xmlwriter_class_entry_ce, align 8
  %39 = call i32 (i32, ptr, ptr, ...) @zend_parse_method_parameters(i32 noundef %24, ptr noundef %37, ptr noundef @.str.19, ptr noundef %19, ptr noundef %38, ptr noundef %7, ptr noundef %9, ptr noundef %8, ptr noundef %10, ptr noundef %15, ptr noundef %12, ptr noundef %16, ptr noundef %13, ptr noundef %17, ptr noundef %14, ptr noundef %18)
  %40 = icmp eq i32 %39, -1
  br i1 %40, label %41, label %46

41:                                               ; preds = %36
  br label %42

42:                                               ; preds = %41
  %43 = load ptr, ptr getelementptr inbounds (%struct._zend_executor_globals, ptr @executor_globals, i32 0, i32 50), align 8
  %44 = icmp ne ptr %43, null
  call void @llvm.assume(i1 %44)
  br label %90

45:                                               ; No predecessors!
  br label %46

46:                                               ; preds = %45, %36
  %47 = load ptr, ptr %19, align 8
  %48 = getelementptr inbounds %struct._zval_struct, ptr %47, i32 0, i32 0
  %49 = load ptr, ptr %48, align 8
  %50 = call ptr @php_xmlwriter_fetch_object(ptr noundef %49)
  store ptr %50, ptr %20, align 8
  %51 = load ptr, ptr %20, align 8
  %52 = getelementptr inbounds %struct._ze_xmlwriter_object, ptr %51, i32 0, i32 0
  %53 = load ptr, ptr %52, align 8
  store ptr %53, ptr %6, align 8
  %54 = load ptr, ptr %6, align 8
  %55 = icmp ne ptr %54, null
  br i1 %55, label %61, label %56

56:                                               ; preds = %46
  call void (ptr, ptr, ...) @zend_throw_error(ptr noundef null, ptr noundef @.str.4)
  br label %57

57:                                               ; preds = %56
  %58 = load ptr, ptr getelementptr inbounds (%struct._zend_executor_globals, ptr @executor_globals, i32 0, i32 50), align 8
  %59 = icmp ne ptr %58, null
  call void @llvm.assume(i1 %59)
  br label %90

60:                                               ; No predecessors!
  br label %61

61:                                               ; preds = %60, %46
  %62 = load ptr, ptr %7, align 8
  %63 = call i32 @xmlValidateName(ptr noundef %62, i32 noundef 0)
  %64 = icmp ne i32 %63, 0
  br i1 %64, label %65, label %71

65:                                               ; preds = %61
  %66 = load ptr, ptr %7, align 8
  call void (i32, ptr, ...) @zend_argument_value_error(i32 noundef 2, ptr noundef @.str.7, ptr noundef @.str.10, ptr noundef %66)
  br label %67

67:                                               ; preds = %65
  %68 = load ptr, ptr getelementptr inbounds (%struct._zend_executor_globals, ptr @executor_globals, i32 0, i32 50), align 8
  %69 = icmp ne ptr %68, null
  call void @llvm.assume(i1 %69)
  br label %90

70:                                               ; No predecessors!
  br label %71

71:                                               ; preds = %70, %61
  %72 = load ptr, ptr %6, align 8
  %73 = load i8, ptr %15, align 1
  %74 = trunc i8 %73 to i1
  %75 = zext i1 %74 to i32
  %76 = load ptr, ptr %7, align 8
  %77 = load ptr, ptr %12, align 8
  %78 = load ptr, ptr %13, align 8
  %79 = load ptr, ptr %14, align 8
  %80 = load ptr, ptr %8, align 8
  %81 = call i32 @xmlTextWriterWriteDTDEntity(ptr noundef %72, i32 noundef %75, ptr noundef %76, ptr noundef %77, ptr noundef %78, ptr noundef %79, ptr noundef %80)
  store i32 %81, ptr %11, align 4
  br label %82

82:                                               ; preds = %71
  br label %83

83:                                               ; preds = %82
  %84 = load i32, ptr %11, align 4
  %85 = icmp ne i32 %84, -1
  %86 = select i1 %85, i32 3, i32 2
  %87 = load ptr, ptr %5, align 8
  %88 = getelementptr inbounds %struct._zval_struct, ptr %87, i32 0, i32 1
  store i32 %86, ptr %88, align 8
  br label %89

89:                                               ; preds = %83
  br label %90

90:                                               ; preds = %89, %67, %57, %42
  ret void
}