; Function Attrs: nounwind uwtable
define hidden void @zif_xmlwriter_write_dtd_entity(ptr noundef %0, ptr nocapture noundef writeonly %1) #0 {
  %3 = alloca ptr, align 8
  %4 = alloca ptr, align 8
  %5 = alloca i64, align 8
  %6 = alloca i64, align 8
  %7 = alloca ptr, align 8
  %8 = alloca ptr, align 8
  %9 = alloca ptr, align 8
  %10 = alloca i8, align 1
  %11 = alloca i64, align 8
  %12 = alloca i64, align 8
  %13 = alloca i64, align 8
  %14 = alloca ptr, align 8
  store ptr null, ptr %7, align 8
  store ptr null, ptr %8, align 8
  store ptr null, ptr %9, align 8
  store i8 0, ptr %10, align 1
  %15 = getelementptr inbounds i8, ptr %0, i64 32
  %16 = getelementptr inbounds i8, ptr %0, i64 44
  %17 = load i32, ptr %16, align 4
  %18 = getelementptr inbounds i8, ptr %0, i64 40
  %19 = load i8, ptr %18, align 8
  %20 = icmp eq i8 %19, 8
  %21 = select i1 %20, ptr %15, ptr null
  %22 = load ptr, ptr @xmlwriter_class_entry_ce, align 8
  %23 = call i32 (i32, ptr, ptr, ...) @zend_parse_method_parameters(i32 noundef %17, ptr noundef %21, ptr noundef nonnull @.str.19, ptr noundef nonnull %14, ptr noundef %22, ptr noundef nonnull %3, ptr noundef nonnull %5, ptr noundef nonnull %4, ptr noundef nonnull %6, ptr noundef nonnull %10, ptr noundef nonnull %7, ptr noundef nonnull %11, ptr noundef nonnull %8, ptr noundef nonnull %12, ptr noundef nonnull %9, ptr noundef nonnull %13) #11
  %24 = icmp eq i32 %23, -1
  br i1 %24, label %25, label %28

25:                                               ; preds = %2
  %26 = load ptr, ptr getelementptr inbounds (%struct._zend_executor_globals, ptr @executor_globals, i64 0, i32 50), align 8
  %27 = icmp ne ptr %26, null
  call void @llvm.assume(i1 %27)
  br label %55

28:                                               ; preds = %2
  %29 = load ptr, ptr %14, align 8
  %30 = load ptr, ptr %29, align 8
  %31 = getelementptr inbounds i8, ptr %30, i64 -16
  %32 = load ptr, ptr %31, align 8
  %.not = icmp eq ptr %32, null
  br i1 %.not, label %33, label %36

33:                                               ; preds = %28
  call void (ptr, ptr, ...) @zend_throw_error(ptr noundef null, ptr noundef nonnull @.str.4) #11
  %34 = load ptr, ptr getelementptr inbounds (%struct._zend_executor_globals, ptr @executor_globals, i64 0, i32 50), align 8
  %35 = icmp ne ptr %34, null
  call void @llvm.assume(i1 %35)
  br label %55

36:                                               ; preds = %28
  %37 = load ptr, ptr %3, align 8
  %38 = call i32 @xmlValidateName(ptr noundef %37, i32 noundef 0) #11
  %.not8 = icmp eq i32 %38, 0
  br i1 %.not8, label %43, label %39

39:                                               ; preds = %36
  %40 = load ptr, ptr %3, align 8
  call void (i32, ptr, ...) @zend_argument_value_error(i32 noundef 2, ptr noundef nonnull @.str.7, ptr noundef nonnull @.str.10, ptr noundef %40) #11
  %41 = load ptr, ptr getelementptr inbounds (%struct._zend_executor_globals, ptr @executor_globals, i64 0, i32 50), align 8
  %42 = icmp ne ptr %41, null
  call void @llvm.assume(i1 %42)
  br label %55

43:                                               ; preds = %36
  %44 = load i8, ptr %10, align 1
  %45 = and i8 %44, 1
  %46 = zext nneg i8 %45 to i32
  %47 = load ptr, ptr %3, align 8
  %48 = load ptr, ptr %7, align 8
  %49 = load ptr, ptr %8, align 8
  %50 = load ptr, ptr %9, align 8
  %51 = load ptr, ptr %4, align 8
  %52 = call i32 @xmlTextWriterWriteDTDEntity(ptr noundef nonnull %32, i32 noundef %46, ptr noundef %47, ptr noundef %48, ptr noundef %49, ptr noundef %50, ptr noundef %51) #11
  %.not9 = icmp eq i32 %52, -1
  %53 = select i1 %.not9, i32 2, i32 3
  %54 = getelementptr inbounds i8, ptr %1, i64 8
  store i32 %53, ptr %54, align 8
  br label %55

55:                                               ; preds = %43, %39, %33, %25
  ret void
}